; Function Attrs: nofree norecurse nosync nounwind memory(readwrite, inaccessiblemem: none) uwtable
define internal noundef i32 @H5S__point_adjust_s(ptr noundef readonly captures(none) %0, ptr noundef readonly captures(none) %1) #4 {
  %3 = load i8, ptr @H5S_init_g, align 1, !tbaa !3, !range !7, !noundef !8
  %4 = trunc nuw i8 %3 to i1
  %5 = load i8, ptr @H5_libterm_g, align 1, !range !7
  %6 = trunc nuw i8 %5 to i1
  %7 = xor i1 %6, true
  %8 = select i1 %4, i1 true, i1 %7
  br i1 %8, label %.preheader37, label %.critedge, !prof !9

.preheader37:                                     ; preds = %2
  %9 = getelementptr inbounds nuw i8, ptr %0, i64 56
  %10 = load i32, ptr %9, align 8, !tbaa !11
  %.not46 = icmp eq i32 %10, 0
  br i1 %.not46, label %.critedge, label %.lr.ph.preheader

.lr.ph.preheader:                                 ; preds = %.preheader37
  %wide.trip.count = zext i32 %10 to i64
  br label %.lr.ph

11:                                               ; preds = %.lr.ph
  %indvars.iv.next = add nuw nsw i64 %indvars.iv, 1
  %exitcond.not = icmp eq i64 %indvars.iv.next, %wide.trip.count
  br i1 %exitcond.not, label %.critedge, label %.lr.ph, !llvm.loop !62

.lr.ph:                                           ; preds = %.lr.ph.preheader, %11
  %indvars.iv = phi i64 [ 0, %.lr.ph.preheader ], [ %indvars.iv.next, %11 ]
  %12 = getelementptr inbounds nuw i64, ptr %1, i64 %indvars.iv
  %13 = load i64, ptr %12, align 8, !tbaa !21
  %.not = icmp eq i64 %13, 0
  br i1 %.not, label %11, label %14

14:                                               ; preds = %.lr.ph
  %15 = getelementptr inbounds nuw i8, ptr %0, i64 360
  %16 = load ptr, ptr %15, align 8, !tbaa !10
  %17 = getelementptr inbounds nuw i8, ptr %16, i64 512
  %.03442 = load ptr, ptr %17, align 8, !tbaa !25
  %.not3543 = icmp eq ptr %.03442, null
  br i1 %.not3543, label %.preheader, label %.preheader36

.loopexit:                                        ; preds = %19
  %.034 = load ptr, ptr %.03444, align 8, !tbaa !25
  %.not35 = icmp eq ptr %.034, null
  br i1 %.not35, label %.preheader, label %.preheader36, !llvm.loop !63

.preheader36:                                     ; preds = %14, %.loopexit
  %.03444 = phi ptr [ %.034, %.loopexit ], [ %.03442, %14 ]
  %18 = getelementptr inbounds nuw i8, ptr %.03444, i64 8
  br label %19

.preheader:                                       ; preds = %.loopexit, %14
  %umax = tail call i32 @llvm.umax.i32(i32 %10, i32 1)
  %wide.trip.count57 = zext i32 %umax to i64
  br label %25

19:                                               ; preds = %.preheader36, %19
  %indvars.iv49 = phi i64 [ 0, %.preheader36 ], [ %indvars.iv.next50, %19 ]
  %20 = getelementptr inbounds nuw [0 x i64], ptr %18, i64 0, i64 %indvars.iv49
  %21 = load i64, ptr %20, align 8, !tbaa !21
  %22 = getelementptr inbounds nuw i64, ptr %1, i64 %indvars.iv49
  %23 = load i64, ptr %22, align 8, !tbaa !21
  %24 = sub nsw i64 %21, %23
  store i64 %24, ptr %20, align 8, !tbaa !21
  %indvars.iv.next50 = add nuw nsw i64 %indvars.iv49, 1
  %exitcond53.not = icmp eq i64 %indvars.iv.next50, %wide.trip.count
  br i1 %exitcond53.not, label %.loopexit, label %19, !llvm.loop !64

25:                                               ; preds = %.preheader, %25
  %indvars.iv54 = phi i64 [ 0, %.preheader ], [ %indvars.iv.next55, %25 ]
  %26 = load ptr, ptr %15, align 8, !tbaa !10
  %27 = getelementptr inbounds nuw [32 x i64], ptr %26, i64 0, i64 %indvars.iv54
  %28 = load i64, ptr %27, align 8, !tbaa !21
  %29 = getelementptr inbounds nuw i64, ptr %1, i64 %indvars.iv54
  %30 = load i64, ptr %29, align 8, !tbaa !21
  %31 = sub nsw i64 %28, %30
  store i64 %31, ptr %27, align 8, !tbaa !21
  %32 = load ptr, ptr %15, align 8, !tbaa !10
  %33 = getelementptr inbounds nuw i8, ptr %32, i64 256
  %34 = getelementptr inbounds nuw [32 x i64], ptr %33, i64 0, i64 %indvars.iv54
  %35 = load i64, ptr %34, align 8, !tbaa !21
  %36 = load i64, ptr %29, align 8, !tbaa !21
  %37 = sub nsw i64 %35, %36
  store i64 %37, ptr %34, align 8, !tbaa !21
  %indvars.iv.next55 = add nuw nsw i64 %indvars.iv54, 1
  %exitcond58.not = icmp eq i64 %indvars.iv.next55, %wide.trip.count57
  br i1 %exitcond58.not, label %.critedge, label %25, !llvm.loop !65

.critedge:                                        ; preds = %11, %25, %.preheader37, %2
  ret i32 0
}